target datalayout = "e-m:e-p270:32:32-p271:32:32-p272:64:64-i64:64-i128:128-f80:128-n8:16:32:64-S128"
target triple = "x86_64-pc-linux-gnu"

%struct.h1_req_parser = type { ptr, %struct.dynbuf, i64, ptr, i64, i64, i8 }
%struct.dynbuf = type { ptr, i64, i64, i64 }

; Function Attrs: nounwind uwtable
define dso_local void @Curl_h1_req_parse_free(ptr noundef %0) #0 {
  %2 = alloca ptr, align 8
  store ptr %0, ptr %2, align 8
  %3 = load ptr, ptr %2, align 8
  %4 = icmp ne ptr %3, null
  br i1 %4, label %5, label %15

5:                                                ; preds = %1
  %6 = load ptr, ptr %2, align 8
  %7 = getelementptr inbounds %struct.h1_req_parser, ptr %6, i32 0, i32 0
  %8 = load ptr, ptr %7, align 8
  call void @Curl_http_req_free(ptr noundef %8)
  %9 = load ptr, ptr %2, align 8
  %10 = getelementptr inbounds %struct.h1_req_parser, ptr %9, i32 0, i32 1
  call void @Curl_dyn_free(ptr noundef %10)
  %11 = load ptr, ptr %2, align 8
  %12 = getelementptr inbounds %struct.h1_req_parser, ptr %11, i32 0, i32 0
  store ptr null, ptr %12, align 8
  %13 = load ptr, ptr %2, align 8
  %14 = getelementptr inbounds %struct.h1_req_parser, ptr %13, i32 0, i32 6
  store i8 0, ptr %14, align 8
  br label %15

15:                                               ; preds = %5, %1
  ret void
}