; Function Attrs: nounwind uwtable
define dso_local void @Curl_h1_req_parse_free(ptr noundef %0) local_unnamed_addr #0 {
  %.not = icmp eq ptr %0, null
  br i1 %.not, label %6, label %2

2:                                                ; preds = %1
  %3 = load ptr, ptr %0, align 8
  tail call void @Curl_http_req_free(ptr noundef %3) #6
  %4 = getelementptr inbounds nuw i8, ptr %0, i64 8
  tail call void @Curl_dyn_free(ptr noundef nonnull %4) #6
  store ptr null, ptr %0, align 8
  %5 = getelementptr inbounds nuw i8, ptr %0, i64 72
  store i8 0, ptr %5, align 8
  br label %6

6:                                                ; preds = %2, %1
  ret void
}